(dp0
S'/tb2/ajd41/envy-you-fork/doc/figures/2_SMC_fluxes.tikz'
p1
F1423705821.0664096
sS'/tb2/ajd41/envy-you-fork/doc/figures/7_Astrocyte_equations.tikz'
p2
F1423706067.8714638
sS'/tb2/ajd41/envy-you-fork/doc/figures/fig6_NVU_12.tikz'
p3
F1423706327.6184678
sS'/tb2/ajd41/envy-you-fork/doc/figures/diff_cor.tikz'
p4
F1423707506.7139428
sS'/tb2/ajd41/envy-you-fork/doc/figures/DFDT.tikz'
p5
F1423706178.1950407
sS'/tb2/ajd41/envy-you-fork/doc/figures/fig1_NVU_12.tikz'
p6
F1423706288.0766196
sS'/tb2/ajd41/envy-you-fork/doc/figures/5_MC_model.tikz'
p7
F1423705998.0497313
sS'/tb2/ajd41/envy-you-fork/doc/figures/BK_rad_NVU14.tikz'
p8
F1423706133.540212
sS'/tb2/ajd41/envy-you-fork/doc/figures/1_Input_signal.tikz'
p9
F1423705452.2898223
sS'/tb2/ajd41/envy-you-fork/doc/figures/6_Neuron_to_Radius.tikz'
p10
F1423706033.1525967
sS'/tb2/ajd41/envy-you-fork/doc/figures/3_EC_fluxes.tikz'
p11
F1423705869.3442245
sS'/tb2/ajd41/envy-you-fork/doc/figures/4_DFDT_new.tikz'
p12
F1423705932.8119812
sS'/tb2/ajd41/envy-you-fork/doc/figures/BK_eff_NVU14.tikz'
p13
F1423706101.5133348
s.